target datalayout = "e-m:e-p270:32:32-p271:32:32-p272:64:64-i64:64-i128:128-f80:128-n8:16:32:64-S128"
target triple = "x86_64-pc-linux-gnu"

%"class.std::__cxx11::basic_string" = type { %"struct.std::__cxx11::basic_string<char>::_Alloc_hider", i64, %union.anon }
%"struct.std::__cxx11::basic_string<char>::_Alloc_hider" = type { ptr }
%union.anon = type { i64, [8 x i8] }
%"class.google::protobuf::TextFormat::Parser" = type <{ ptr, ptr, ptr, i8, i8, i8, i8, i8, i8, i8, i8, i32, [4 x i8] }>
%"class.google::protobuf::stringpiece_internal::StringPiece" = type { ptr, i64 }
%"class.google::protobuf::io::ArrayInputStream" = type { %"class.google::protobuf::io::ZeroCopyInputStream", ptr, i32, i32, i32, i32 }
%"class.google::protobuf::io::ZeroCopyInputStream" = type { ptr }

; Function Attrs: mustprogress nounwind uwtable
define available_externally noundef ptr @_ZNKSt7__cxx1112basic_stringIcSt11char_traitsIcESaIcEE7_M_dataEv(ptr noundef nonnull align 8 dereferenceable(32) %0) #5 align 2 {
  %2 = alloca ptr, align 8
  store ptr %0, ptr %2, align 8, !tbaa !8
  %3 = load ptr, ptr %2, align 8
  %4 = getelementptr inbounds nuw %"class.std::__cxx11::basic_string", ptr %3, i32 0, i32 0
  %5 = getelementptr inbounds nuw %"struct.std::__cxx11::basic_string<char>::_Alloc_hider", ptr %4, i32 0, i32 0
  %6 = load ptr, ptr %5, align 8, !tbaa !460
  ret ptr %6
}

; Function Attrs: mustprogress nounwind uwtable
define linkonce_odr hidden noundef i64 @_ZN6google8protobuf20stringpiece_internal11StringPiece9CheckSizeEm(i64 noundef %0) #5 comdat align 2 {
  %2 = alloca i64, align 8
  store i64 %0, ptr %2, align 8, !tbaa !51
  %3 = load i64, ptr %2, align 8, !tbaa !51
  ret i64 %3
}

; Function Attrs: mustprogress nounwind uwtable
define linkonce_odr hidden void @_ZN6google8protobuf2io19ZeroCopyInputStreamD2Ev(ptr noundef nonnull align 8 dereferenceable(8) %0) unnamed_addr #5 comdat align 2 {
  %2 = alloca ptr, align 8
  store ptr %0, ptr %2, align 8, !tbaa !128
  ret void
}

; Function Attrs: mustprogress nounwind uwtable
define available_externally noundef i64 @_ZNKSt7__cxx1112basic_stringIcSt11char_traitsIcESaIcEE4sizeEv(ptr noundef nonnull align 8 dereferenceable(32) %0) #5 align 2 {
  %2 = alloca ptr, align 8
  store ptr %0, ptr %2, align 8, !tbaa !8
  %3 = load ptr, ptr %2, align 8
  %4 = getelementptr inbounds nuw %"class.std::__cxx11::basic_string", ptr %3, i32 0, i32 1
  %5 = load i64, ptr %4, align 8, !tbaa !52
  ret i64 %5
}

; Function Attrs: mustprogress nounwind uwtable
define available_externally noundef ptr @_ZNKSt7__cxx1112basic_stringIcSt11char_traitsIcESaIcEE4dataEv(ptr noundef nonnull align 8 dereferenceable(32) %0) #5 align 2 {
  %2 = alloca ptr, align 8
  store ptr %0, ptr %2, align 8, !tbaa !8
  %3 = load ptr, ptr %2, align 8
  %4 = call noundef ptr @_ZNKSt7__cxx1112basic_stringIcSt11char_traitsIcESaIcEE7_M_dataEv(ptr noundef nonnull align 8 dereferenceable(32) %3)
  ret ptr %4
}

; Function Attrs: mustprogress nounwind uwtable
define linkonce_odr hidden void @_ZN6google8protobuf20stringpiece_internal11StringPieceC2ISaIcEEERKNSt7__cxx1112basic_stringIcSt11char_traitsIcET_EE(ptr noundef nonnull align 8 dereferenceable(16) %0, ptr noundef nonnull align 8 dereferenceable(32) %1) unnamed_addr #5 comdat align 2 {
  %3 = alloca ptr, align 8
  %4 = alloca ptr, align 8
  store ptr %0, ptr %3, align 8, !tbaa !161
  store ptr %1, ptr %4, align 8, !tbaa !8
  %5 = load ptr, ptr %3, align 8
  %6 = getelementptr inbounds nuw %"class.google::protobuf::stringpiece_internal::StringPiece", ptr %5, i32 0, i32 0
  %7 = load ptr, ptr %4, align 8, !tbaa !8
  %8 = call noundef ptr @_ZNKSt7__cxx1112basic_stringIcSt11char_traitsIcESaIcEE4dataEv(ptr noundef nonnull align 8 dereferenceable(32) %7) #3
  store ptr %8, ptr %6, align 8, !tbaa !163
  %9 = getelementptr inbounds nuw %"class.google::protobuf::stringpiece_internal::StringPiece", ptr %5, i32 0, i32 1
  store i64 0, ptr %9, align 8, !tbaa !165
  %10 = load ptr, ptr %4, align 8, !tbaa !8
  %11 = call noundef i64 @_ZNKSt7__cxx1112basic_stringIcSt11char_traitsIcESaIcEE4sizeEv(ptr noundef nonnull align 8 dereferenceable(32) %10) #3
  %12 = call noundef i64 @_ZN6google8protobuf20stringpiece_internal11StringPiece9CheckSizeEm(i64 noundef %11)
  %13 = getelementptr inbounds nuw %"class.google::protobuf::stringpiece_internal::StringPiece", ptr %5, i32 0, i32 1
  store i64 %12, ptr %13, align 8, !tbaa !165
  ret void
}

; Function Attrs: mustprogress uwtable
define hidden noundef zeroext i1 @_ZN6google8protobuf10TextFormat6Parser15MergeFromStringERKNSt7__cxx1112basic_stringIcSt11char_traitsIcESaIcEEEPNS0_7MessageE(ptr noundef nonnull align 8 dereferenceable(36) %0, ptr noundef nonnull align 8 dereferenceable(32) %1, ptr noundef %2) #4 align 2 personality ptr @__gxx_personality_v0 {
  %4 = alloca i1, align 1
  %5 = alloca ptr, align 8
  %6 = alloca ptr, align 8
  %7 = alloca ptr, align 8
  %8 = alloca %"class.google::protobuf::stringpiece_internal::StringPiece", align 8
  %9 = alloca %"class.google::protobuf::io::ArrayInputStream", align 8
  %10 = alloca ptr, align 8
  %11 = alloca i32, align 4
  store ptr %0, ptr %5, align 8, !tbaa !112
  store ptr %1, ptr %6, align 8, !tbaa !8
  store ptr %2, ptr %7, align 8, !tbaa !3
  %12 = load ptr, ptr %5, align 8
  %13 = load ptr, ptr %6, align 8, !tbaa !8
  call void @_ZN6google8protobuf20stringpiece_internal11StringPieceC2ISaIcEEERKNSt7__cxx1112basic_stringIcSt11char_traitsIcET_EE(ptr noundef nonnull align 8 dereferenceable(16) %8, ptr noundef nonnull align 8 dereferenceable(32) %13)
  %14 = getelementptr inbounds nuw %"class.google::protobuf::TextFormat::Parser", ptr %12, i32 0, i32 0
  %15 = load ptr, ptr %14, align 8, !tbaa !114
  %16 = getelementptr inbounds nuw { ptr, i64 }, ptr %8, i32 0, i32 0
  %17 = load ptr, ptr %16, align 8
  %18 = getelementptr inbounds nuw { ptr, i64 }, ptr %8, i32 0, i32 1
  %19 = load i64, ptr %18, align 8
  %20 = call noundef zeroext i1 @_ZN6google8protobuf12_GLOBAL__N_119CheckParseInputSizeENS0_20stringpiece_internal11StringPieceEPNS0_2io14ErrorCollectorE(ptr %17, i64 %19, ptr noundef %15)
  br i1 %20, label %21, label %22

21:                                               ; preds = %3
  br label %23

22:                                               ; preds = %3
  store i1 false, ptr %4, align 1
  br label %36

23:                                               ; preds = %21
  call void @llvm.lifetime.start.p0(i64 32, ptr %9) #3
  %24 = load ptr, ptr %6, align 8, !tbaa !8
  %25 = call noundef ptr @_ZNKSt7__cxx1112basic_stringIcSt11char_traitsIcESaIcEE4dataEv(ptr noundef nonnull align 8 dereferenceable(32) %24) #3
  %26 = load ptr, ptr %6, align 8, !tbaa !8
  %27 = call noundef i64 @_ZNKSt7__cxx1112basic_stringIcSt11char_traitsIcESaIcEE4sizeEv(ptr noundef nonnull align 8 dereferenceable(32) %26) #3
  %28 = trunc i64 %27 to i32
  call void @_ZN6google8protobuf2io16ArrayInputStreamC1EPKvii(ptr noundef nonnull align 8 dereferenceable(32) %9, ptr noundef %25, i32 noundef %28, i32 noundef -1)
  %29 = load ptr, ptr %7, align 8, !tbaa !3
  %30 = invoke noundef zeroext i1 @_ZN6google8protobuf10TextFormat6Parser5MergeEPNS0_2io19ZeroCopyInputStreamEPNS0_7MessageE(ptr noundef nonnull align 8 dereferenceable(36) %12, ptr noundef %9, ptr noundef %29)
          to label %31 unwind label %32

31:                                               ; preds = %23
  store i1 %30, ptr %4, align 1
  call void @_ZN6google8protobuf2io19ZeroCopyInputStreamD2Ev(ptr noundef nonnull align 8 dereferenceable(32) %9) #3
  call void @llvm.lifetime.end.p0(i64 32, ptr %9) #3
  br label %36

32:                                               ; preds = %23
  %33 = landingpad { ptr, i32 }
          cleanup
  %34 = extractvalue { ptr, i32 } %33, 0
  store ptr %34, ptr %10, align 8
  %35 = extractvalue { ptr, i32 } %33, 1
  store i32 %35, ptr %11, align 4
  call void @_ZN6google8protobuf2io19ZeroCopyInputStreamD2Ev(ptr noundef nonnull align 8 dereferenceable(32) %9) #3
  call void @llvm.lifetime.end.p0(i64 32, ptr %9) #3
  br label %38

36:                                               ; preds = %31, %22
  %37 = load i1, ptr %4, align 1
  ret i1 %37

38:                                               ; preds = %32
  %39 = load ptr, ptr %10, align 8
  %40 = load i32, ptr %11, align 4
  %41 = insertvalue { ptr, i32 } poison, ptr %39, 0
  %42 = insertvalue { ptr, i32 } %41, i32 %40, 1
  resume { ptr, i32 } %42
}